(lp0
(lp1
S'X'
p2
aS'A'
p3
aF0.14
aa(lp4
S'Y'
p5
ag3
aF0.168
aa(lp6
S'Z'
p7
ag3
aF0.2
aa(lp8
g2
aS'B'
p9
aF0.176
aa(lp10
g5
ag9
aF0.236
aa(lp11
g7
ag9
aF0.288
aa(lp12
g2
aS'C'
p13
aF0.292
aa(lp14
g5
ag13
aF0.376
aa(lp15
g7
ag13
aF0.46
aa.