(lp0
(lp1
F48.0
aF29.125
aa(lp2
F46.0
aF30.5625
aa(lp3
F44.0
aF31.9375
aa(lp4
F42.0
aF33.5
aa(lp5
F40.0
aF35.3125
aa(lp6
F38.0
aF37.0
aa(lp7
F36.0
aF39.3125
aa(lp8
F34.0
aF41.625
aa(lp9
F32.0
aF44.1875
aa(lp10
F30.0
aF47.0625
aa(lp11
F28.0
aF50.3125
aa(lp12
F26.0
aF54.3125
aa(lp13
F24.0
aF58.8125
aa(lp14
F23.0
aF61.3125
aa(lp15
F22.0
aF64.0625
aa(lp16
F21.0
aF67.0625
aa(lp17
F20.0
aF70.6875
aa(lp18
F19.0
aF74.125
aa(lp19
F18.0
aF77.875
aa(lp20
F17.0
aF82.75
aa(lp21
F16.0
aF87.875
aa(lp22
F15.0
aF93.0625
aa(lp23
F14.0
aF100.4375
aa(lp24
F13.0
aF107.8125
aa(lp25
F12.0
aF117.5625
aa.